target datalayout = "e-m:e-p270:32:32-p271:32:32-p272:64:64-i64:64-i128:128-f80:128-n8:16:32:64-S128"
target triple = "x86_64-pc-linux-gnu"

; Function Attrs: mustprogress uwtable
define void @_ZN6icu_779BytesTrie6appendERNS_8ByteSinkEi(ptr noundef nonnull align 8 dereferenceable(8) %0, i32 noundef %1) #4 align 2 {
  %3 = alloca ptr, align 8
  %4 = alloca i32, align 4
  %5 = alloca i8, align 1
  store ptr %0, ptr %3, align 8, !tbaa !32
  store i32 %1, ptr %4, align 4, !tbaa !13
  call void @llvm.lifetime.start.p0(i64 1, ptr %5) #8
  %6 = load i32, ptr %4, align 4, !tbaa !13
  %7 = trunc i32 %6 to i8
  store i8 %7, ptr %5, align 1, !tbaa !14
  %8 = load ptr, ptr %3, align 8, !tbaa !32
  %9 = load ptr, ptr %8, align 8, !tbaa !34
  %10 = getelementptr inbounds ptr, ptr %9, i64 2
  %11 = load ptr, ptr %10, align 8
  call void %11(ptr noundef nonnull align 8 dereferenceable(8) %8, ptr noundef %5, i32 noundef 1)
  call void @llvm.lifetime.end.p0(i64 1, ptr %5) #8
  ret void
}