; Function Attrs: mustprogress uwtable
define void @_ZN6icu_779BytesTrie6appendERNS_8ByteSinkEi(ptr noundef nonnull align 8 dereferenceable(8) %0, i32 noundef %1) local_unnamed_addr #10 align 2 {
  %3 = alloca i8, align 1
  call void @llvm.lifetime.start.p0(i64 1, ptr nonnull %3) #13
  %4 = trunc i32 %1 to i8
  store i8 %4, ptr %3, align 1, !tbaa !10
  %5 = load ptr, ptr %0, align 8, !tbaa !22
  %6 = getelementptr inbounds nuw i8, ptr %5, i64 16
  %7 = load ptr, ptr %6, align 8
  call void %7(ptr noundef nonnull align 8 dereferenceable(8) %0, ptr noundef nonnull %3, i32 noundef 1)
  call void @llvm.lifetime.end.p0(i64 1, ptr nonnull %3) #13
  ret void
}